target datalayout = "e-m:e-p270:32:32-p271:32:32-p272:64:64-i64:64-i128:128-f80:128-n8:16:32:64-S128"
target triple = "x86_64-pc-linux-gnu"

%struct.IndexScanDescData = type { ptr, ptr, ptr, i32, i32, ptr, ptr, i8, i8, i8, i8, i8, ptr, ptr, ptr, ptr, ptr, %struct.ItemPointerData, i8, ptr, i8, ptr, ptr, i8, ptr }
%struct.ItemPointerData = type { %struct.BlockIdData, i16 }
%struct.BlockIdData = type { i16, i16 }

; Function Attrs: nounwind uwtable
define dso_local void @IndexScanEnd(ptr noundef %0) #0 {
  %2 = alloca ptr, align 8
  store ptr %0, ptr %2, align 8
  %3 = load ptr, ptr %2, align 8
  %4 = getelementptr inbounds nuw %struct.IndexScanDescData, ptr %3, i32 0, i32 5
  %5 = load ptr, ptr %4, align 8
  %6 = icmp ne ptr %5, null
  br i1 %6, label %7, label %11

7:                                                ; preds = %1
  %8 = load ptr, ptr %2, align 8
  %9 = getelementptr inbounds nuw %struct.IndexScanDescData, ptr %8, i32 0, i32 5
  %10 = load ptr, ptr %9, align 8
  call void @pfree(ptr noundef %10)
  br label %11

11:                                               ; preds = %7, %1
  %12 = load ptr, ptr %2, align 8
  %13 = getelementptr inbounds nuw %struct.IndexScanDescData, ptr %12, i32 0, i32 6
  %14 = load ptr, ptr %13, align 8
  %15 = icmp ne ptr %14, null
  br i1 %15, label %16, label %20

16:                                               ; preds = %11
  %17 = load ptr, ptr %2, align 8
  %18 = getelementptr inbounds nuw %struct.IndexScanDescData, ptr %17, i32 0, i32 6
  %19 = load ptr, ptr %18, align 8
  call void @pfree(ptr noundef %19)
  br label %20

20:                                               ; preds = %16, %11
  %21 = load ptr, ptr %2, align 8
  call void @pfree(ptr noundef %21)
  ret void
}