; Function Attrs: nounwind uwtable
define dso_local void @IndexScanEnd(ptr noundef %0) local_unnamed_addr #0 {
  %2 = getelementptr inbounds nuw i8, ptr %0, i64 32
  %3 = load ptr, ptr %2, align 8
  %.not = icmp eq ptr %3, null
  br i1 %.not, label %5, label %4

4:                                                ; preds = %1
  tail call void @pfree(ptr noundef nonnull %3) #7
  br label %5

5:                                                ; preds = %4, %1
  %6 = getelementptr inbounds nuw i8, ptr %0, i64 40
  %7 = load ptr, ptr %6, align 8
  %.not6 = icmp eq ptr %7, null
  br i1 %.not6, label %9, label %8

8:                                                ; preds = %5
  tail call void @pfree(ptr noundef nonnull %7) #7
  br label %9

9:                                                ; preds = %8, %5
  tail call void @pfree(ptr noundef nonnull %0) #7
  ret void
}